target datalayout = "e-m:e-p270:32:32-p271:32:32-p272:64:64-i64:64-i128:128-f80:128-n8:16:32:64-S128"
target triple = "x86_64-pc-linux-gnu"

%struct.PrivateRefCountEntry = type { i32, i32 }

@PrivateRefCountOverflowed = internal global i32 0, align 4
@PrivateRefCountArray = internal global [8 x %struct.PrivateRefCountEntry] zeroinitializer, align 16
@PrivateRefCountHash = internal global ptr null, align 8
@ReservedRefCountEntry = internal global ptr null, align 8
@PrivateRefCountClock = internal global i32 0, align 4

; Function Attrs: nounwind uwtable
define internal void @ReservePrivateRefCountEntry() #0 {
  %1 = alloca i32, align 4
  %2 = alloca ptr, align 8
  %3 = alloca i32, align 4
  %4 = alloca ptr, align 8
  %5 = alloca i8, align 1
  %6 = load ptr, ptr @ReservedRefCountEntry, align 8
  %7 = icmp ne ptr %6, null
  br i1 %7, label %8, label %9

8:                                                ; preds = %0
  br label %54

9:                                                ; preds = %0
  call void @llvm.lifetime.start.p0(i64 4, ptr %1) #10
  store i32 0, ptr %1, align 4
  br label %10

10:                                               ; preds = %27, %9
  %11 = load i32, ptr %1, align 4
  %12 = icmp slt i32 %11, 8
  br i1 %12, label %13, label %30

13:                                               ; preds = %10
  call void @llvm.lifetime.start.p0(i64 8, ptr %2) #10
  %14 = load i32, ptr %1, align 4
  %15 = sext i32 %14 to i64
  %16 = getelementptr inbounds [8 x %struct.PrivateRefCountEntry], ptr @PrivateRefCountArray, i64 0, i64 %15
  store ptr %16, ptr %2, align 8
  %17 = load ptr, ptr %2, align 8
  %18 = getelementptr inbounds nuw %struct.PrivateRefCountEntry, ptr %17, i32 0, i32 0
  %19 = load i32, ptr %18, align 4
  %20 = icmp eq i32 %19, 0
  br i1 %20, label %21, label %23

21:                                               ; preds = %13
  %22 = load ptr, ptr %2, align 8
  store ptr %22, ptr @ReservedRefCountEntry, align 8
  store i32 1, ptr %3, align 4
  br label %24

23:                                               ; preds = %13
  store i32 0, ptr %3, align 4
  br label %24

24:                                               ; preds = %23, %21
  call void @llvm.lifetime.end.p0(i64 8, ptr %2) #10
  %25 = load i32, ptr %3, align 4
  switch i32 %25, label %31 [
    i32 0, label %26
  ]

26:                                               ; preds = %24
  br label %27

27:                                               ; preds = %26
  %28 = load i32, ptr %1, align 4
  %29 = add i32 %28, 1
  store i32 %29, ptr %1, align 4
  br label %10, !llvm.loop !6

30:                                               ; preds = %10
  store i32 0, ptr %3, align 4
  br label %31

31:                                               ; preds = %30, %24
  call void @llvm.lifetime.end.p0(i64 4, ptr %1) #10
  %32 = load i32, ptr %3, align 4
  switch i32 %32, label %55 [
    i32 0, label %33
    i32 1, label %54
  ]

33:                                               ; preds = %31
  call void @llvm.lifetime.start.p0(i64 8, ptr %4) #10
  call void @llvm.lifetime.start.p0(i64 1, ptr %5) #10
  %34 = load i32, ptr @PrivateRefCountClock, align 4
  %35 = add i32 %34, 1
  store i32 %35, ptr @PrivateRefCountClock, align 4
  %36 = urem i32 %34, 8
  %37 = zext i32 %36 to i64
  %38 = getelementptr inbounds nuw [8 x %struct.PrivateRefCountEntry], ptr @PrivateRefCountArray, i64 0, i64 %37
  store ptr %38, ptr @ReservedRefCountEntry, align 8
  %39 = load ptr, ptr @PrivateRefCountHash, align 8
  %40 = load ptr, ptr @ReservedRefCountEntry, align 8
  %41 = getelementptr inbounds nuw %struct.PrivateRefCountEntry, ptr %40, i32 0, i32 0
  %42 = call ptr @hash_search(ptr noundef %39, ptr noundef %41, i32 noundef 1, ptr noundef %5)
  store ptr %42, ptr %4, align 8
  %43 = load ptr, ptr @ReservedRefCountEntry, align 8
  %44 = getelementptr inbounds nuw %struct.PrivateRefCountEntry, ptr %43, i32 0, i32 1
  %45 = load i32, ptr %44, align 4
  %46 = load ptr, ptr %4, align 8
  %47 = getelementptr inbounds nuw %struct.PrivateRefCountEntry, ptr %46, i32 0, i32 1
  store i32 %45, ptr %47, align 4
  %48 = load ptr, ptr @ReservedRefCountEntry, align 8
  %49 = getelementptr inbounds nuw %struct.PrivateRefCountEntry, ptr %48, i32 0, i32 0
  store i32 0, ptr %49, align 4
  %50 = load ptr, ptr @ReservedRefCountEntry, align 8
  %51 = getelementptr inbounds nuw %struct.PrivateRefCountEntry, ptr %50, i32 0, i32 1
  store i32 0, ptr %51, align 4
  %52 = load i32, ptr @PrivateRefCountOverflowed, align 4
  %53 = add i32 %52, 1
  store i32 %53, ptr @PrivateRefCountOverflowed, align 4
  call void @llvm.lifetime.end.p0(i64 1, ptr %5) #10
  call void @llvm.lifetime.end.p0(i64 8, ptr %4) #10
  br label %54

54:                                               ; preds = %33, %31, %8
  ret void

55:                                               ; preds = %31
  unreachable
}