; Function Attrs: nounwind uwtable
define internal fastcc void @ReservePrivateRefCountEntry() unnamed_addr #0 {
  %1 = alloca i8, align 1
  %2 = load ptr, ptr @ReservedRefCountEntry, align 8
  %.not = icmp eq ptr %2, null
  br i1 %.not, label %.critedge, label %22

3:                                                ; preds = %.critedge
  %indvars.iv.next = add nuw nsw i64 %indvars.iv, 1
  %exitcond.not = icmp eq i64 %indvars.iv.next, 8
  br i1 %exitcond.not, label %8, label %.critedge, !llvm.loop !8

.critedge:                                        ; preds = %0, %3
  %indvars.iv = phi i64 [ %indvars.iv.next, %3 ], [ 0, %0 ]
  %4 = getelementptr inbounds nuw [8 x %struct.PrivateRefCountEntry], ptr @PrivateRefCountArray, i64 0, i64 %indvars.iv
  %5 = load i32, ptr %4, align 8
  %.not8 = icmp eq i32 %5, 0
  br i1 %.not8, label %6, label %3

6:                                                ; preds = %.critedge
  %7 = getelementptr inbounds nuw [8 x %struct.PrivateRefCountEntry], ptr @PrivateRefCountArray, i64 0, i64 %indvars.iv
  store ptr %7, ptr @ReservedRefCountEntry, align 8
  br label %22

8:                                                ; preds = %3
  call void @llvm.lifetime.start.p0(i64 1, ptr nonnull %1) #16
  %9 = load i32, ptr @PrivateRefCountClock, align 4
  %10 = add i32 %9, 1
  store i32 %10, ptr @PrivateRefCountClock, align 4
  %11 = and i32 %9, 7
  %12 = zext nneg i32 %11 to i64
  %13 = getelementptr inbounds nuw [8 x %struct.PrivateRefCountEntry], ptr @PrivateRefCountArray, i64 0, i64 %12
  store ptr %13, ptr @ReservedRefCountEntry, align 8
  %14 = load ptr, ptr @PrivateRefCountHash, align 8
  %15 = call ptr @hash_search(ptr noundef %14, ptr noundef nonnull %13, i32 noundef 1, ptr noundef nonnull %1) #16
  %16 = load ptr, ptr @ReservedRefCountEntry, align 8
  %17 = getelementptr inbounds nuw i8, ptr %16, i64 4
  %18 = load i32, ptr %17, align 4
  %19 = getelementptr inbounds nuw i8, ptr %15, i64 4
  store i32 %18, ptr %19, align 4
  store i32 0, ptr %16, align 4
  store i32 0, ptr %17, align 4
  %20 = load i32, ptr @PrivateRefCountOverflowed, align 4
  %21 = add i32 %20, 1
  store i32 %21, ptr @PrivateRefCountOverflowed, align 4
  call void @llvm.lifetime.end.p0(i64 1, ptr nonnull %1) #16
  br label %22

22:                                               ; preds = %6, %0, %8
  ret void
}